; Function Attrs: nounwind uwtable
define internal fastcc noundef ptr @_readJsonAggConstructor() unnamed_addr #0 {
  %1 = alloca i32, align 4
  %2 = tail call noundef ptr @palloc0(i64 noundef 48) #10
  store i32 133, ptr %2, align 4
  call void @llvm.lifetime.start.p0(i64 4, ptr nonnull %1) #10
  %3 = call ptr @pg_strtok(ptr noundef nonnull %1) #10
  %4 = call ptr @nodeRead(ptr noundef null, i32 noundef 0) #10
  %5 = getelementptr inbounds nuw i8, ptr %2, i64 8
  store ptr %4, ptr %5, align 8
  %6 = call ptr @pg_strtok(ptr noundef nonnull %1) #10
  %7 = call ptr @nodeRead(ptr noundef null, i32 noundef 0) #10
  %8 = getelementptr inbounds nuw i8, ptr %2, i64 16
  store ptr %7, ptr %8, align 8
  %9 = call ptr @pg_strtok(ptr noundef nonnull %1) #10
  %10 = call ptr @nodeRead(ptr noundef null, i32 noundef 0) #10
  %11 = getelementptr inbounds nuw i8, ptr %2, i64 24
  store ptr %10, ptr %11, align 8
  %12 = call ptr @pg_strtok(ptr noundef nonnull %1) #10
  %13 = call ptr @nodeRead(ptr noundef null, i32 noundef 0) #10
  %14 = getelementptr inbounds nuw i8, ptr %2, i64 32
  store ptr %13, ptr %14, align 8
  %15 = call ptr @pg_strtok(ptr noundef nonnull %1) #10
  %16 = call ptr @pg_strtok(ptr noundef nonnull %1) #10
  %17 = getelementptr inbounds nuw i8, ptr %2, i64 40
  store i32 -1, ptr %17, align 8
  call void @llvm.lifetime.end.p0(i64 4, ptr nonnull %1) #10
  ret ptr %2
}